target datalayout = "e-m:e-p270:32:32-p271:32:32-p272:64:64-i64:64-i128:128-f80:128-n8:16:32:64-S128"
target triple = "x86_64-pc-linux-gnu"

; Function Attrs: nounwind uwtable
define i32 @BN_GF2m_mod_div(ptr noundef %0, ptr noundef %1, ptr noundef %2, ptr noundef %3, ptr noundef %4) #0 {
  %6 = alloca ptr, align 8
  %7 = alloca ptr, align 8
  %8 = alloca ptr, align 8
  %9 = alloca ptr, align 8
  %10 = alloca ptr, align 8
  %11 = alloca ptr, align 8
  %12 = alloca i32, align 4
  store ptr %0, ptr %6, align 8, !tbaa !3
  store ptr %1, ptr %7, align 8, !tbaa !3
  store ptr %2, ptr %8, align 8, !tbaa !3
  store ptr %3, ptr %9, align 8, !tbaa !3
  store ptr %4, ptr %10, align 8, !tbaa !29
  call void @llvm.lifetime.start.p0(i64 8, ptr %11) #3
  store ptr null, ptr %11, align 8, !tbaa !3
  call void @llvm.lifetime.start.p0(i64 4, ptr %12) #3
  store i32 0, ptr %12, align 4, !tbaa !12
  %13 = load ptr, ptr %10, align 8, !tbaa !29
  call void @BN_CTX_start(ptr noundef %13)
  %14 = load ptr, ptr %10, align 8, !tbaa !29
  %15 = call ptr @BN_CTX_get(ptr noundef %14)
  store ptr %15, ptr %11, align 8, !tbaa !3
  %16 = load ptr, ptr %11, align 8, !tbaa !3
  %17 = icmp eq ptr %16, null
  br i1 %17, label %18, label %19

18:                                               ; preds = %5
  br label %37

19:                                               ; preds = %5
  %20 = load ptr, ptr %11, align 8, !tbaa !3
  %21 = load ptr, ptr %8, align 8, !tbaa !3
  %22 = load ptr, ptr %9, align 8, !tbaa !3
  %23 = load ptr, ptr %10, align 8, !tbaa !29
  %24 = call i32 @BN_GF2m_mod_inv(ptr noundef %20, ptr noundef %21, ptr noundef %22, ptr noundef %23)
  %25 = icmp ne i32 %24, 0
  br i1 %25, label %27, label %26

26:                                               ; preds = %19
  br label %37

27:                                               ; preds = %19
  %28 = load ptr, ptr %6, align 8, !tbaa !3
  %29 = load ptr, ptr %7, align 8, !tbaa !3
  %30 = load ptr, ptr %11, align 8, !tbaa !3
  %31 = load ptr, ptr %9, align 8, !tbaa !3
  %32 = load ptr, ptr %10, align 8, !tbaa !29
  %33 = call i32 @BN_GF2m_mod_mul(ptr noundef %28, ptr noundef %29, ptr noundef %30, ptr noundef %31, ptr noundef %32)
  %34 = icmp ne i32 %33, 0
  br i1 %34, label %36, label %35

35:                                               ; preds = %27
  br label %37

36:                                               ; preds = %27
  store i32 1, ptr %12, align 4, !tbaa !12
  br label %37

37:                                               ; preds = %36, %35, %26, %18
  %38 = load ptr, ptr %10, align 8, !tbaa !29
  call void @BN_CTX_end(ptr noundef %38)
  %39 = load i32, ptr %12, align 4, !tbaa !12
  call void @llvm.lifetime.end.p0(i64 4, ptr %12) #3
  call void @llvm.lifetime.end.p0(i64 8, ptr %11) #3
  ret i32 %39
}

; Function Attrs: nounwind uwtable
define i32 @BN_GF2m_arr2poly(ptr noundef %0, ptr noundef %1) #0 {
  %3 = alloca i32, align 4
  %4 = alloca ptr, align 8
  %5 = alloca ptr, align 8
  %6 = alloca i32, align 4
  %7 = alloca i32, align 4
  store ptr %0, ptr %4, align 8, !tbaa !19
  store ptr %1, ptr %5, align 8, !tbaa !3
  call void @llvm.lifetime.start.p0(i64 4, ptr %6) #3
  %8 = load ptr, ptr %5, align 8, !tbaa !3
  call void @BN_zero_ex(ptr noundef %8)
  store i32 0, ptr %6, align 4, !tbaa !12
  br label %9

9:                                                ; preds = %27, %2
  %10 = load ptr, ptr %4, align 8, !tbaa !19
  %11 = load i32, ptr %6, align 4, !tbaa !12
  %12 = sext i32 %11 to i64
  %13 = getelementptr inbounds i32, ptr %10, i64 %12
  %14 = load i32, ptr %13, align 4, !tbaa !12
  %15 = icmp ne i32 %14, -1
  br i1 %15, label %16, label %30

16:                                               ; preds = %9
  %17 = load ptr, ptr %5, align 8, !tbaa !3
  %18 = load ptr, ptr %4, align 8, !tbaa !19
  %19 = load i32, ptr %6, align 4, !tbaa !12
  %20 = sext i32 %19 to i64
  %21 = getelementptr inbounds i32, ptr %18, i64 %20
  %22 = load i32, ptr %21, align 4, !tbaa !12
  %23 = call i32 @BN_set_bit(ptr noundef %17, i32 noundef %22)
  %24 = icmp eq i32 %23, 0
  br i1 %24, label %25, label %26

25:                                               ; preds = %16
  store i32 0, ptr %3, align 4
  store i32 1, ptr %7, align 4
  br label %31

26:                                               ; preds = %16
  br label %27

27:                                               ; preds = %26
  %28 = load i32, ptr %6, align 4, !tbaa !12
  %29 = add nsw i32 %28, 1
  store i32 %29, ptr %6, align 4, !tbaa !12
  br label %9, !llvm.loop !44

30:                                               ; preds = %9
  store i32 1, ptr %3, align 4
  store i32 1, ptr %7, align 4
  br label %31

31:                                               ; preds = %30, %25
  call void @llvm.lifetime.end.p0(i64 4, ptr %6) #3
  %32 = load i32, ptr %3, align 4
  ret i32 %32
}

; Function Attrs: nounwind uwtable
define i32 @BN_GF2m_mod_div_arr(ptr noundef %0, ptr noundef %1, ptr noundef %2, ptr noundef %3, ptr noundef %4) #0 {
  %6 = alloca ptr, align 8
  %7 = alloca ptr, align 8
  %8 = alloca ptr, align 8
  %9 = alloca ptr, align 8
  %10 = alloca ptr, align 8
  %11 = alloca ptr, align 8
  %12 = alloca i32, align 4
  store ptr %0, ptr %6, align 8, !tbaa !3
  store ptr %1, ptr %7, align 8, !tbaa !3
  store ptr %2, ptr %8, align 8, !tbaa !3
  store ptr %3, ptr %9, align 8, !tbaa !19
  store ptr %4, ptr %10, align 8, !tbaa !29
  call void @llvm.lifetime.start.p0(i64 8, ptr %11) #3
  call void @llvm.lifetime.start.p0(i64 4, ptr %12) #3
  store i32 0, ptr %12, align 4, !tbaa !12
  %13 = load ptr, ptr %10, align 8, !tbaa !29
  call void @BN_CTX_start(ptr noundef %13)
  %14 = load ptr, ptr %10, align 8, !tbaa !29
  %15 = call ptr @BN_CTX_get(ptr noundef %14)
  store ptr %15, ptr %11, align 8, !tbaa !3
  %16 = icmp eq ptr %15, null
  br i1 %16, label %17, label %18

17:                                               ; preds = %5
  br label %31

18:                                               ; preds = %5
  %19 = load ptr, ptr %9, align 8, !tbaa !19
  %20 = load ptr, ptr %11, align 8, !tbaa !3
  %21 = call i32 @BN_GF2m_arr2poly(ptr noundef %19, ptr noundef %20)
  %22 = icmp ne i32 %21, 0
  br i1 %22, label %24, label %23

23:                                               ; preds = %18
  br label %31

24:                                               ; preds = %18
  %25 = load ptr, ptr %6, align 8, !tbaa !3
  %26 = load ptr, ptr %7, align 8, !tbaa !3
  %27 = load ptr, ptr %8, align 8, !tbaa !3
  %28 = load ptr, ptr %11, align 8, !tbaa !3
  %29 = load ptr, ptr %10, align 8, !tbaa !29
  %30 = call i32 @BN_GF2m_mod_div(ptr noundef %25, ptr noundef %26, ptr noundef %27, ptr noundef %28, ptr noundef %29)
  store i32 %30, ptr %12, align 4, !tbaa !12
  br label %31

31:                                               ; preds = %24, %23, %17
  %32 = load ptr, ptr %10, align 8, !tbaa !29
  call void @BN_CTX_end(ptr noundef %32)
  %33 = load i32, ptr %12, align 4, !tbaa !12
  call void @llvm.lifetime.end.p0(i64 4, ptr %12) #3
  call void @llvm.lifetime.end.p0(i64 8, ptr %11) #3
  ret i32 %33
}