; Function Attrs: nounwind uwtable
define range(i32 0, 2) i32 @BN_GF2m_mod_div_arr(ptr noundef %0, ptr noundef captures(address) %1, ptr noundef captures(address) %2, ptr noundef readonly captures(none) %3, ptr noundef %4) local_unnamed_addr #0 {
  tail call void @BN_CTX_start(ptr noundef %4) #5
  %6 = tail call ptr @BN_CTX_get(ptr noundef %4) #5
  %7 = icmp eq ptr %6, null
  br i1 %7, label %BN_GF2m_arr2poly.exit, label %8

8:                                                ; preds = %5
  tail call void @BN_zero_ex(ptr noundef nonnull %6) #5
  %9 = load i32, ptr %3, align 4, !tbaa !16
  %.not9.i = icmp eq i32 %9, -1
  br i1 %.not9.i, label %.loopexit, label %.lr.ph.i

10:                                               ; preds = %.lr.ph.i
  %indvars.iv.next.i = add nuw nsw i64 %indvars.iv.i, 1
  %11 = getelementptr inbounds nuw i32, ptr %3, i64 %indvars.iv.next.i
  %12 = load i32, ptr %11, align 4, !tbaa !16
  %.not.i = icmp eq i32 %12, -1
  br i1 %.not.i, label %.loopexit, label %.lr.ph.i, !llvm.loop !32

.lr.ph.i:                                         ; preds = %8, %10
  %indvars.iv.i = phi i64 [ %indvars.iv.next.i, %10 ], [ 0, %8 ]
  %13 = phi i32 [ %12, %10 ], [ %9, %8 ]
  %14 = tail call i32 @BN_set_bit(ptr noundef nonnull %6, i32 noundef %13) #5
  %15 = icmp eq i32 %14, 0
  br i1 %15, label %BN_GF2m_arr2poly.exit, label %10

.loopexit:                                        ; preds = %10, %8
  tail call void @BN_CTX_start(ptr noundef %4) #5
  %16 = tail call ptr @BN_CTX_get(ptr noundef %4) #5
  %17 = icmp eq ptr %16, null
  br i1 %17, label %BN_GF2m_mod_div.exit, label %18

18:                                               ; preds = %.loopexit
  %19 = tail call i32 @BN_GF2m_mod_inv(ptr noundef nonnull %16, ptr noundef %2, ptr noundef nonnull %6, ptr noundef %4)
  %.not.i11 = icmp eq i32 %19, 0
  br i1 %.not.i11, label %BN_GF2m_mod_div.exit, label %20

20:                                               ; preds = %18
  %21 = tail call i32 @BN_GF2m_mod_mul(ptr noundef %0, ptr noundef %1, ptr noundef nonnull %16, ptr noundef nonnull %6, ptr noundef %4)
  %.not14.i = icmp ne i32 %21, 0
  %spec.select.i = zext i1 %.not14.i to i32
  br label %BN_GF2m_mod_div.exit

BN_GF2m_mod_div.exit:                             ; preds = %.loopexit, %18, %20
  %.0.i = phi i32 [ 0, %.loopexit ], [ 0, %18 ], [ %spec.select.i, %20 ]
  tail call void @BN_CTX_end(ptr noundef %4) #5
  br label %BN_GF2m_arr2poly.exit

BN_GF2m_arr2poly.exit:                            ; preds = %.lr.ph.i, %5, %BN_GF2m_mod_div.exit
  %.0 = phi i32 [ 0, %5 ], [ %.0.i, %BN_GF2m_mod_div.exit ], [ 0, %.lr.ph.i ]
  tail call void @BN_CTX_end(ptr noundef %4) #5
  ret i32 %.0
}